target datalayout = "e-m:e-p270:32:32-p271:32:32-p272:64:64-i64:64-i128:128-f80:128-n8:16:32:64-S128"
target triple = "x86_64-pc-linux-gnu"

@.str = private unnamed_addr constant [34 x i8] c"../openssl/crypto/x509/x509aset.c\00", align 1
@__func__.replace_dirName = private unnamed_addr constant [16 x i8] c"replace_dirName\00", align 1

; Function Attrs: inlinehint nounwind uwtable
define internal ptr @ossl_check_GENERAL_NAME_type(ptr noundef %0) #3 {
  %2 = alloca ptr, align 8
  store ptr %0, ptr %2, align 8, !tbaa !20
  %3 = load ptr, ptr %2, align 8, !tbaa !20
  ret ptr %3
}

; Function Attrs: inlinehint nounwind uwtable
define internal ptr @ossl_check_GENERAL_NAME_sk_type(ptr noundef %0) #3 {
  %2 = alloca ptr, align 8
  store ptr %0, ptr %2, align 8, !tbaa !22
  %3 = load ptr, ptr %2, align 8, !tbaa !22
  ret ptr %3
}

; Function Attrs: nounwind uwtable
define internal i32 @replace_dirName(ptr noundef %0, ptr noundef %1) #0 {
  %3 = alloca i32, align 4
  %4 = alloca ptr, align 8
  %5 = alloca ptr, align 8
  %6 = alloca ptr, align 8
  %7 = alloca ptr, align 8
  %8 = alloca ptr, align 8
  %9 = alloca i32, align 4
  store ptr %0, ptr %4, align 8, !tbaa !18
  store ptr %1, ptr %5, align 8, !tbaa !16
  call void @llvm.lifetime.start.p0(i64 8, ptr %6) #4
  store ptr null, ptr %6, align 8, !tbaa !20
  call void @llvm.lifetime.start.p0(i64 8, ptr %7) #4
  store ptr null, ptr %7, align 8, !tbaa !22
  call void @llvm.lifetime.start.p0(i64 8, ptr %8) #4
  %10 = load ptr, ptr %5, align 8, !tbaa !16
  %11 = call ptr @X509_NAME_dup(ptr noundef %10)
  store ptr %11, ptr %8, align 8, !tbaa !16
  %12 = icmp eq ptr %11, null
  br i1 %12, label %13, label %14

13:                                               ; preds = %2
  call void @ERR_new()
  call void @ERR_set_debug(ptr noundef @.str, i32 noundef 44, ptr noundef @__func__.replace_dirName)
  call void (i32, i32, ptr, ...) @ERR_set_error(i32 noundef 11, i32 noundef 524301, ptr noundef null)
  br label %37

14:                                               ; preds = %2
  %15 = call ptr @OPENSSL_sk_new_null()
  store ptr %15, ptr %7, align 8, !tbaa !22
  %16 = icmp eq ptr %15, null
  br i1 %16, label %17, label %18

17:                                               ; preds = %14
  call void @ERR_new()
  call void @ERR_set_debug(ptr noundef @.str, i32 noundef 49, ptr noundef @__func__.replace_dirName)
  call void (i32, i32, ptr, ...) @ERR_set_error(i32 noundef 11, i32 noundef 524301, ptr noundef null)
  br label %37

18:                                               ; preds = %14
  %19 = call ptr @GENERAL_NAME_new()
  store ptr %19, ptr %6, align 8, !tbaa !20
  %20 = icmp eq ptr %19, null
  br i1 %20, label %21, label %22

21:                                               ; preds = %18
  call void @ERR_new()
  call void @ERR_set_debug(ptr noundef @.str, i32 noundef 54, ptr noundef @__func__.replace_dirName)
  call void (i32, i32, ptr, ...) @ERR_set_error(i32 noundef 11, i32 noundef 524301, ptr noundef null)
  br label %37

22:                                               ; preds = %18
  %23 = load ptr, ptr %7, align 8, !tbaa !22
  %24 = call ptr @ossl_check_GENERAL_NAME_sk_type(ptr noundef %23)
  %25 = load ptr, ptr %6, align 8, !tbaa !20
  %26 = call ptr @ossl_check_GENERAL_NAME_type(ptr noundef %25)
  %27 = call i32 @OPENSSL_sk_push(ptr noundef %24, ptr noundef %26)
  %28 = icmp sle i32 %27, 0
  br i1 %28, label %29, label %30

29:                                               ; preds = %22
  call void @ERR_new()
  call void @ERR_set_debug(ptr noundef @.str, i32 noundef 59, ptr noundef @__func__.replace_dirName)
  call void (i32, i32, ptr, ...) @ERR_set_error(i32 noundef 11, i32 noundef 524303, ptr noundef null)
  br label %37

30:                                               ; preds = %22
  %31 = load ptr, ptr %6, align 8, !tbaa !20
  %32 = load ptr, ptr %8, align 8, !tbaa !16
  call void @GENERAL_NAME_set0_value(ptr noundef %31, i32 noundef 4, ptr noundef %32)
  %33 = load ptr, ptr %4, align 8, !tbaa !18
  %34 = load ptr, ptr %33, align 8, !tbaa !22
  call void @GENERAL_NAMES_free(ptr noundef %34)
  %35 = load ptr, ptr %7, align 8, !tbaa !22
  %36 = load ptr, ptr %4, align 8, !tbaa !18
  store ptr %35, ptr %36, align 8, !tbaa !22
  store i32 1, ptr %3, align 4
  store i32 1, ptr %9, align 4
  br label %42

37:                                               ; preds = %29, %21, %17, %13
  %38 = load ptr, ptr %6, align 8, !tbaa !20
  call void @GENERAL_NAME_free(ptr noundef %38)
  %39 = load ptr, ptr %7, align 8, !tbaa !22
  %40 = call ptr @ossl_check_GENERAL_NAME_sk_type(ptr noundef %39)
  call void @OPENSSL_sk_free(ptr noundef %40)
  %41 = load ptr, ptr %8, align 8, !tbaa !16
  call void @X509_NAME_free(ptr noundef %41)
  store i32 0, ptr %3, align 4
  store i32 1, ptr %9, align 4
  br label %42

42:                                               ; preds = %37, %30
  call void @llvm.lifetime.end.p0(i64 8, ptr %8) #4
  call void @llvm.lifetime.end.p0(i64 8, ptr %7) #4
  call void @llvm.lifetime.end.p0(i64 8, ptr %6) #4
  %43 = load i32, ptr %3, align 4
  ret i32 %43
}