; Function Attrs: nounwind uwtable
define internal fastcc range(i32 0, 2) i32 @replace_dirName(ptr noundef captures(none) %0, ptr noundef %1) unnamed_addr #0 {
  %3 = tail call ptr @X509_NAME_dup(ptr noundef %1) #2
  %4 = icmp eq ptr %3, null
  br i1 %4, label %16, label %5

5:                                                ; preds = %2
  %6 = tail call ptr @OPENSSL_sk_new_null() #2
  %7 = icmp eq ptr %6, null
  br i1 %7, label %16, label %8

8:                                                ; preds = %5
  %9 = tail call ptr @GENERAL_NAME_new() #2
  %10 = icmp eq ptr %9, null
  br i1 %10, label %16, label %11

11:                                               ; preds = %8
  %12 = tail call i32 @OPENSSL_sk_push(ptr noundef nonnull %6, ptr noundef nonnull %9) #2
  %13 = icmp slt i32 %12, 1
  br i1 %13, label %16, label %14

14:                                               ; preds = %11
  tail call void @GENERAL_NAME_set0_value(ptr noundef nonnull %9, i32 noundef 4, ptr noundef nonnull %3) #2
  %15 = load ptr, ptr %0, align 8, !tbaa !3
  tail call void @GENERAL_NAMES_free(ptr noundef %15) #2
  store ptr %6, ptr %0, align 8, !tbaa !3
  br label %17

16:                                               ; preds = %11, %8, %5, %2
  %.sink17 = phi i32 [ 44, %2 ], [ 49, %5 ], [ 54, %8 ], [ 59, %11 ]
  %.sink = phi i32 [ 524301, %2 ], [ 524301, %5 ], [ 524301, %8 ], [ 524303, %11 ]
  %.012 = phi ptr [ null, %2 ], [ null, %5 ], [ null, %8 ], [ %9, %11 ]
  %.011 = phi ptr [ null, %2 ], [ null, %5 ], [ %6, %8 ], [ %6, %11 ]
  tail call void @ERR_new() #2
  tail call void @ERR_set_debug(ptr noundef nonnull @.str, i32 noundef %.sink17, ptr noundef nonnull @__func__.replace_dirName) #2
  tail call void (i32, i32, ptr, ...) @ERR_set_error(i32 noundef 11, i32 noundef %.sink, ptr noundef null) #2
  tail call void @GENERAL_NAME_free(ptr noundef %.012) #2
  tail call void @OPENSSL_sk_free(ptr noundef %.011) #2
  tail call void @X509_NAME_free(ptr noundef %3) #2
  br label %17

17:                                               ; preds = %16, %14
  %.0 = phi i32 [ 0, %16 ], [ 1, %14 ]
  ret i32 %.0
}